target datalayout = "e-m:e-p270:32:32-p271:32:32-p272:64:64-i64:64-i128:128-f80:128-n8:16:32:64-S128"
target triple = "x86_64-pc-linux-gnu"

%struct.expert_info_s = type { i32, i32, i32, i32, ptr, ptr, ptr }

@_ZZN15ExpertInfoModel14createRootItemEvE8rootName = internal global ptr @.str.2, align 8
@_ZZN15ExpertInfoModel14createRootItemEvE11root_expert = internal global %struct.expert_info_s zeroinitializer, align 8
@_ZGVZN15ExpertInfoModel14createRootItemEvE11root_expert = internal global i64 0, align 8
@_ZN16ExpertPacketItemC1ERK13expert_info_sP16epan_column_infoPS_ = unnamed_addr alias void (ptr, ptr, ptr, ptr), ptr @_ZN16ExpertPacketItemC2ERK13expert_info_sP16epan_column_infoPS_

; Function Attrs: mustprogress null_pointer_is_valid sspstrong uwtable
define noundef ptr @_ZN15ExpertInfoModel14createRootItemEv(ptr noundef align 8 dereferenceable_or_null(48) %0) #0 align 2 personality ptr @__gxx_personality_v0 {
  %2 = alloca ptr, align 8
  %3 = alloca ptr, align 8
  %4 = alloca i32, align 4
  store ptr %0, ptr %2, align 8
  %5 = load atomic i8, ptr @_ZGVZN15ExpertInfoModel14createRootItemEvE11root_expert acquire, align 8
  %6 = icmp eq i8 %5, 0
  br i1 %6, label %7, label %13, !prof !10

7:                                                ; preds = %1
  %8 = call i32 @__cxa_guard_acquire(ptr @_ZGVZN15ExpertInfoModel14createRootItemEvE11root_expert) #10
  %9 = icmp ne i32 %8, 0
  br i1 %9, label %10, label %13

10:                                               ; preds = %7
  store i32 0, ptr @_ZZN15ExpertInfoModel14createRootItemEvE11root_expert, align 8
  store i32 -1, ptr getelementptr inbounds nuw (%struct.expert_info_s, ptr @_ZZN15ExpertInfoModel14createRootItemEvE11root_expert, i32 0, i32 1), align 4
  store i32 -1, ptr getelementptr inbounds nuw (%struct.expert_info_s, ptr @_ZZN15ExpertInfoModel14createRootItemEvE11root_expert, i32 0, i32 2), align 8
  store i32 -1, ptr getelementptr inbounds nuw (%struct.expert_info_s, ptr @_ZZN15ExpertInfoModel14createRootItemEvE11root_expert, i32 0, i32 3), align 4
  %11 = load ptr, ptr @_ZZN15ExpertInfoModel14createRootItemEvE8rootName, align 8
  store ptr %11, ptr getelementptr inbounds nuw (%struct.expert_info_s, ptr @_ZZN15ExpertInfoModel14createRootItemEvE11root_expert, i32 0, i32 4), align 8
  %12 = load ptr, ptr @_ZZN15ExpertInfoModel14createRootItemEvE8rootName, align 8
  store ptr %12, ptr getelementptr inbounds nuw (%struct.expert_info_s, ptr @_ZZN15ExpertInfoModel14createRootItemEvE11root_expert, i32 0, i32 5), align 8
  store ptr null, ptr getelementptr inbounds nuw (%struct.expert_info_s, ptr @_ZZN15ExpertInfoModel14createRootItemEvE11root_expert, i32 0, i32 6), align 8
  call void @__cxa_guard_release(ptr @_ZGVZN15ExpertInfoModel14createRootItemEvE11root_expert) #10
  br label %13

13:                                               ; preds = %10, %7, %1
  %14 = call noalias noundef ptr @_Znwm(i64 noundef 136) #27
  invoke void @_ZN16ExpertPacketItemC1ERK13expert_info_sP16epan_column_infoPS_(ptr noundef align 8 dereferenceable_or_null(136) %14, ptr noundef align 8 dereferenceable(40) @_ZZN15ExpertInfoModel14createRootItemEvE11root_expert, ptr noundef null, ptr noundef null)
          to label %15 unwind label %16

15:                                               ; preds = %13
  ret ptr %14

16:                                               ; preds = %13
  %17 = landingpad { ptr, i32 }
          cleanup
  %18 = extractvalue { ptr, i32 } %17, 0
  store ptr %18, ptr %3, align 8
  %19 = extractvalue { ptr, i32 } %17, 1
  store i32 %19, ptr %4, align 4
  call void @_ZdlPvm(ptr noundef %14, i64 noundef 136) #25
  br label %20

20:                                               ; preds = %16
  %21 = load ptr, ptr %3, align 8
  %22 = load i32, ptr %4, align 4
  %23 = insertvalue { ptr, i32 } poison, ptr %21, 0
  %24 = insertvalue { ptr, i32 } %23, i32 %22, 1
  resume { ptr, i32 } %24
}