; Function Attrs: mustprogress null_pointer_is_valid sspstrong uwtable
define noundef ptr @_ZN15ExpertInfoModel14createRootItemEv(ptr noundef readnone align 8 captures(none) dereferenceable_or_null(48) %0) local_unnamed_addr #0 align 2 personality ptr @__gxx_personality_v0 {
  %2 = load atomic i8, ptr @_ZGVZN15ExpertInfoModel14createRootItemEvE11root_expert acquire, align 8
  %3 = icmp eq i8 %2, 0
  br i1 %3, label %4, label %7, !prof !14

4:                                                ; preds = %1
  %5 = tail call i32 @__cxa_guard_acquire(ptr nonnull @_ZGVZN15ExpertInfoModel14createRootItemEvE11root_expert) #26
  %.not = icmp eq i32 %5, 0
  br i1 %.not, label %7, label %6

6:                                                ; preds = %4
  store i32 0, ptr @_ZZN15ExpertInfoModel14createRootItemEvE11root_expert, align 8
  store i32 -1, ptr getelementptr inbounds nuw (i8, ptr @_ZZN15ExpertInfoModel14createRootItemEvE11root_expert, i64 4), align 4
  store i32 -1, ptr getelementptr inbounds nuw (i8, ptr @_ZZN15ExpertInfoModel14createRootItemEvE11root_expert, i64 8), align 8
  store i32 -1, ptr getelementptr inbounds nuw (i8, ptr @_ZZN15ExpertInfoModel14createRootItemEvE11root_expert, i64 12), align 4
  store ptr @.str.2, ptr getelementptr inbounds nuw (i8, ptr @_ZZN15ExpertInfoModel14createRootItemEvE11root_expert, i64 16), align 8
  store ptr @.str.2, ptr getelementptr inbounds nuw (i8, ptr @_ZZN15ExpertInfoModel14createRootItemEvE11root_expert, i64 24), align 8
  store ptr null, ptr getelementptr inbounds nuw (i8, ptr @_ZZN15ExpertInfoModel14createRootItemEvE11root_expert, i64 32), align 8
  tail call void @__cxa_guard_release(ptr nonnull @_ZGVZN15ExpertInfoModel14createRootItemEvE11root_expert) #26
  br label %7

7:                                                ; preds = %6, %4, %1
  %8 = tail call noalias noundef dereferenceable_or_null(136) ptr @_Znwm(i64 noundef 136) #29
  invoke void @_ZN16ExpertPacketItemC1ERK13expert_info_sP16epan_column_infoPS_(ptr noundef align 8 dereferenceable_or_null(136) %8, ptr noundef nonnull align 8 dereferenceable(40) @_ZZN15ExpertInfoModel14createRootItemEvE11root_expert, ptr noundef null, ptr noundef null)
          to label %9 unwind label %10

9:                                                ; preds = %7
  ret ptr %8

10:                                               ; preds = %7
  %11 = landingpad { ptr, i32 }
          cleanup
  tail call void @_ZdlPvm(ptr noundef %8, i64 noundef 136) #27
  resume { ptr, i32 } %11
}